; ModuleID = '4/2095.c'
source_filename = "4/2095.c"
target datalayout = "e-m:e-p270:32:32-p271:32:32-p272:64:64-i64:64-f80:128-n8:16:32:64-S128"
target triple = "x86_64-pc-linux-gnu"

@.str = private unnamed_addr constant [6 x i8] c"%d %d\00", align 1
@.str.1 = private unnamed_addr constant [3 x i8] c"%d\00", align 1
@.str.2 = private unnamed_addr constant [4 x i8] c"%d\0A\00", align 1

; Function Attrs: noinline nounwind uwtable
define dso_local void @main() #0 {
  %1 = alloca i32, align 4
  %2 = alloca i32, align 4
  %3 = alloca [100 x [100 x i32]], align 16
  %4 = alloca i32, align 4
  %5 = alloca i32, align 4
  %6 = alloca i32, align 4
  %7 = call i32 (i8*, ...) @__isoc99_scanf(i8* getelementptr inbounds ([6 x i8], [6 x i8]* @.str, i64 0, i64 0), i32* %1, i32* %2)
  store i32 0, i32* %4, align 4
  br label %8

8:                                                ; preds = %29, %0
  %9 = load i32, i32* %4, align 4
  %10 = load i32, i32* %1, align 4
  %11 = icmp slt i32 %9, %10
  br i1 %11, label %12, label %32

12:                                               ; preds = %8
  store i32 0, i32* %5, align 4
  br label %13

13:                                               ; preds = %25, %12
  %14 = load i32, i32* %5, align 4
  %15 = load i32, i32* %2, align 4
  %16 = icmp slt i32 %14, %15
  br i1 %16, label %17, label %28

17:                                               ; preds = %13
  %18 = load i32, i32* %4, align 4
  %19 = sext i32 %18 to i64
  %20 = getelementptr inbounds [100 x [100 x i32]], [100 x [100 x i32]]* %3, i64 0, i64 %19
  %21 = load i32, i32* %5, align 4
  %22 = sext i32 %21 to i64
  %23 = getelementptr inbounds [100 x i32], [100 x i32]* %20, i64 0, i64 %22
  %24 = call i32 (i8*, ...) @__isoc99_scanf(i8* getelementptr inbounds ([3 x i8], [3 x i8]* @.str.1, i64 0, i64 0), i32* %23)
  br label %25

25:                                               ; preds = %17
  %26 = load i32, i32* %5, align 4
  %27 = add nsw i32 %26, 1
  store i32 %27, i32* %5, align 4
  br label %13

28:                                               ; preds = %13
  br label %29

29:                                               ; preds = %28
  %30 = load i32, i32* %4, align 4
  %31 = add nsw i32 %30, 1
  store i32 %31, i32* %4, align 4
  br label %8

32:                                               ; preds = %8
  store i32 0, i32* %6, align 4
  br label %33

33:                                               ; preds = %64, %32
  %34 = load i32, i32* %6, align 4
  %35 = load i32, i32* %2, align 4
  %36 = sub nsw i32 %35, 1
  %37 = icmp sle i32 %34, %36
  br i1 %37, label %38, label %67

38:                                               ; preds = %33
  store i32 0, i32* %4, align 4
  %39 = load i32, i32* %6, align 4
  store i32 %39, i32* %5, align 4
  br label %40

40:                                               ; preds = %50, %38
  %41 = load i32, i32* %5, align 4
  %42 = icmp sge i32 %41, 0
  br i1 %42, label %43, label %48

43:                                               ; preds = %40
  %44 = load i32, i32* %4, align 4
  %45 = load i32, i32* %1, align 4
  %46 = sub nsw i32 %45, 1
  %47 = icmp sle i32 %44, %46
  br label %48

48:                                               ; preds = %43, %40
  %49 = phi i1 [ false, %40 ], [ %47, %43 ]
  br i1 %49, label %50, label %63

50:                                               ; preds = %48
  %51 = load i32, i32* %4, align 4
  %52 = sext i32 %51 to i64
  %53 = getelementptr inbounds [100 x [100 x i32]], [100 x [100 x i32]]* %3, i64 0, i64 %52
  %54 = load i32, i32* %5, align 4
  %55 = sext i32 %54 to i64
  %56 = getelementptr inbounds [100 x i32], [100 x i32]* %53, i64 0, i64 %55
  %57 = load i32, i32* %56, align 4
  %58 = call i32 (i8*, ...) @printf(i8* getelementptr inbounds ([4 x i8], [4 x i8]* @.str.2, i64 0, i64 0), i32 %57)
  %59 = load i32, i32* %4, align 4
  %60 = add nsw i32 %59, 1
  store i32 %60, i32* %4, align 4
  %61 = load i32, i32* %5, align 4
  %62 = add nsw i32 %61, -1
  store i32 %62, i32* %5, align 4
  br label %40

63:                                               ; preds = %48
  br label %64

64:                                               ; preds = %63
  %65 = load i32, i32* %6, align 4
  %66 = add nsw i32 %65, 1
  store i32 %66, i32* %6, align 4
  br label %33

67:                                               ; preds = %33
  store i32 1, i32* %6, align 4
  br label %68

68:                                               ; preds = %101, %67
  %69 = load i32, i32* %6, align 4
  %70 = load i32, i32* %1, align 4
  %71 = sub nsw i32 %70, 1
  %72 = icmp sle i32 %69, %71
  br i1 %72, label %73, label %104

73:                                               ; preds = %68
  %74 = load i32, i32* %2, align 4
  %75 = sub nsw i32 %74, 1
  store i32 %75, i32* %5, align 4
  %76 = load i32, i32* %6, align 4
  store i32 %76, i32* %4, align 4
  br label %77

77:                                               ; preds = %87, %73
  %78 = load i32, i32* %5, align 4
  %79 = icmp sge i32 %78, 0
  br i1 %79, label %80, label %85

80:                                               ; preds = %77
  %81 = load i32, i32* %4, align 4
  %82 = load i32, i32* %1, align 4
  %83 = sub nsw i32 %82, 1
  %84 = icmp sle i32 %81, %83
  br label %85

85:                                               ; preds = %80, %77
  %86 = phi i1 [ false, %77 ], [ %84, %80 ]
  br i1 %86, label %87, label %100

87:                                               ; preds = %85
  %88 = load i32, i32* %4, align 4
  %89 = sext i32 %88 to i64
  %90 = getelementptr inbounds [100 x [100 x i32]], [100 x [100 x i32]]* %3, i64 0, i64 %89
  %91 = load i32, i32* %5, align 4
  %92 = sext i32 %91 to i64
  %93 = getelementptr inbounds [100 x i32], [100 x i32]* %90, i64 0, i64 %92
  %94 = load i32, i32* %93, align 4
  %95 = call i32 (i8*, ...) @printf(i8* getelementptr inbounds ([4 x i8], [4 x i8]* @.str.2, i64 0, i64 0), i32 %94)
  %96 = load i32, i32* %4, align 4
  %97 = add nsw i32 %96, 1
  store i32 %97, i32* %4, align 4
  %98 = load i32, i32* %5, align 4
  %99 = add nsw i32 %98, -1
  store i32 %99, i32* %5, align 4
  br label %77

100:                                              ; preds = %85
  br label %101

101:                                              ; preds = %100
  %102 = load i32, i32* %6, align 4
  %103 = add nsw i32 %102, 1
  store i32 %103, i32* %6, align 4
  br label %68

104:                                              ; preds = %68
  ret void
}

declare dso_local i32 @__isoc99_scanf(i8*, ...) #1

declare dso_local i32 @printf(i8*, ...) #1


!llvm.module.flags = !{!0}
!llvm.ident = !{!1}

!0 = !{i32 1, !"wchar_size", i32 4}
!1 = !{!"clang version 10.0.0-4ubuntu1 "}
